target datalayout = "e-m:e-p270:32:32-p271:32:32-p272:64:64-i64:64-i128:128-f80:128-n8:16:32:64-S128"
target triple = "x86_64-pc-linux-gnu"

%struct.ogg_stream = type { ptr, i32, i32, i32, i32, i32, i32, i32, i64, i64, i64, i64, i64, i64, i32, ptr, i32, i32, i32, [255 x i8], i32, i32, i32, i32, i32, i32, i32, i32, ptr, i64, ptr }
%struct.oggopus_private = type { i32, i32, i64 }
%struct.AVStream = type { ptr, i32, i32, ptr, ptr, %struct.AVRational, i64, i64, i64, i32, i32, %struct.AVRational, ptr, %struct.AVRational, %struct.AVPacket, i32, %struct.AVRational, i32 }
%struct.AVPacket = type { ptr, i64, i64, ptr, i32, i32, i32, ptr, i32, i64, i64, ptr, ptr, %struct.AVRational }
%struct.AVRational = type { i32, i32 }
%struct.AVCodecParameters = type { i32, i32, i32, ptr, i32, ptr, i32, i32, i64, i32, i32, i32, i32, i32, i32, %struct.AVRational, %struct.AVRational, i32, i32, i32, i32, i32, i32, i32, %struct.AVChannelLayout, i32, i32, i32, i32, i32, i32 }
%struct.AVChannelLayout = type { i32, i32, %union.anon, ptr }
%union.anon = type { i64 }

@.str.3 = private unnamed_addr constant [33 x i8] c"Channel change is not supported\0A\00", align 1

; Function Attrs: nounwind uwtable
define internal i32 @parse_opus_header(ptr noundef %0, ptr noundef %1, ptr noundef %2, ptr noundef %3, ptr noundef %4, i64 noundef %5) #0 {
  %7 = alloca i32, align 4
  %8 = alloca ptr, align 8
  %9 = alloca ptr, align 8
  %10 = alloca ptr, align 8
  %11 = alloca ptr, align 8
  %12 = alloca ptr, align 8
  %13 = alloca i64, align 8
  %14 = alloca i32, align 4
  %15 = alloca i32, align 4
  %16 = alloca i32, align 4
  store ptr %0, ptr %8, align 8, !tbaa !4
  store ptr %1, ptr %9, align 8, !tbaa !35
  store ptr %2, ptr %10, align 8, !tbaa !33
  store ptr %3, ptr %11, align 8, !tbaa !40
  store ptr %4, ptr %12, align 8, !tbaa !44
  store i64 %5, ptr %13, align 8, !tbaa !68
  call void @llvm.lifetime.start.p0(i64 4, ptr %14) #6
  call void @llvm.lifetime.start.p0(i64 4, ptr %15) #6
  %17 = load i64, ptr %13, align 8, !tbaa !68
  %18 = icmp ult i64 %17, 19
  br i1 %18, label %27, label %19

19:                                               ; preds = %6
  %20 = load ptr, ptr %12, align 8, !tbaa !44
  %21 = getelementptr inbounds i8, ptr %20, i64 8
  %22 = getelementptr inbounds i8, ptr %21, i64 0
  %23 = load i8, ptr %22, align 1, !tbaa !54
  %24 = zext i8 %23 to i32
  %25 = and i32 %24, 240
  %26 = icmp ne i32 %25, 0
  br i1 %26, label %27, label %28

27:                                               ; preds = %19, %6
  store i32 -1094995529, ptr %7, align 4
  store i32 1, ptr %16, align 4
  br label %126

28:                                               ; preds = %19
  %29 = load ptr, ptr %9, align 8, !tbaa !35
  %30 = getelementptr inbounds nuw %struct.AVStream, ptr %29, i32 0, i32 3
  %31 = load ptr, ptr %30, align 8, !tbaa !70
  %32 = getelementptr inbounds nuw %struct.AVCodecParameters, ptr %31, i32 0, i32 0
  store i32 1, ptr %32, align 8, !tbaa !71
  %33 = load ptr, ptr %9, align 8, !tbaa !35
  %34 = getelementptr inbounds nuw %struct.AVStream, ptr %33, i32 0, i32 3
  %35 = load ptr, ptr %34, align 8, !tbaa !70
  %36 = getelementptr inbounds nuw %struct.AVCodecParameters, ptr %35, i32 0, i32 1
  store i32 86076, ptr %36, align 4, !tbaa !74
  %37 = load ptr, ptr %12, align 8, !tbaa !44
  %38 = getelementptr inbounds i8, ptr %37, i64 9
  %39 = getelementptr inbounds i8, ptr %38, i64 0
  %40 = load i8, ptr %39, align 1, !tbaa !54
  %41 = zext i8 %40 to i32
  store i32 %41, ptr %14, align 4, !tbaa !9
  %42 = load ptr, ptr %9, align 8, !tbaa !35
  %43 = getelementptr inbounds nuw %struct.AVStream, ptr %42, i32 0, i32 3
  %44 = load ptr, ptr %43, align 8, !tbaa !70
  %45 = getelementptr inbounds nuw %struct.AVCodecParameters, ptr %44, i32 0, i32 24
  %46 = getelementptr inbounds nuw %struct.AVChannelLayout, ptr %45, i32 0, i32 1
  %47 = load i32, ptr %46, align 4, !tbaa !75
  %48 = icmp ne i32 %47, 0
  br i1 %48, label %49, label %60

49:                                               ; preds = %28
  %50 = load i32, ptr %14, align 4, !tbaa !9
  %51 = load ptr, ptr %9, align 8, !tbaa !35
  %52 = getelementptr inbounds nuw %struct.AVStream, ptr %51, i32 0, i32 3
  %53 = load ptr, ptr %52, align 8, !tbaa !70
  %54 = getelementptr inbounds nuw %struct.AVCodecParameters, ptr %53, i32 0, i32 24
  %55 = getelementptr inbounds nuw %struct.AVChannelLayout, ptr %54, i32 0, i32 1
  %56 = load i32, ptr %55, align 4, !tbaa !75
  %57 = icmp ne i32 %50, %56
  br i1 %57, label %58, label %60

58:                                               ; preds = %49
  %59 = load ptr, ptr %8, align 8, !tbaa !4
  call void (ptr, i32, ptr, ...) @av_log(ptr noundef %59, i32 noundef 16, ptr noundef @.str.3)
  store i32 -1163346256, ptr %7, align 4
  store i32 1, ptr %16, align 4
  br label %126

60:                                               ; preds = %49, %28
  %61 = load i32, ptr %14, align 4, !tbaa !9
  %62 = load ptr, ptr %9, align 8, !tbaa !35
  %63 = getelementptr inbounds nuw %struct.AVStream, ptr %62, i32 0, i32 3
  %64 = load ptr, ptr %63, align 8, !tbaa !70
  %65 = getelementptr inbounds nuw %struct.AVCodecParameters, ptr %64, i32 0, i32 24
  %66 = getelementptr inbounds nuw %struct.AVChannelLayout, ptr %65, i32 0, i32 1
  store i32 %61, ptr %66, align 4, !tbaa !75
  %67 = load ptr, ptr %12, align 8, !tbaa !44
  %68 = getelementptr inbounds i8, ptr %67, i64 10
  %69 = load i16, ptr %68, align 1, !tbaa !54
  %70 = zext i16 %69 to i32
  %71 = load ptr, ptr %11, align 8, !tbaa !40
  %72 = getelementptr inbounds nuw %struct.oggopus_private, ptr %71, i32 0, i32 1
  store i32 %70, ptr %72, align 4, !tbaa !66
  %73 = load ptr, ptr %11, align 8, !tbaa !40
  %74 = getelementptr inbounds nuw %struct.oggopus_private, ptr %73, i32 0, i32 1
  %75 = load i32, ptr %74, align 4, !tbaa !66
  %76 = load ptr, ptr %9, align 8, !tbaa !35
  %77 = getelementptr inbounds nuw %struct.AVStream, ptr %76, i32 0, i32 3
  %78 = load ptr, ptr %77, align 8, !tbaa !70
  %79 = getelementptr inbounds nuw %struct.AVCodecParameters, ptr %78, i32 0, i32 28
  store i32 %75, ptr %79, align 4, !tbaa !76
  %80 = load ptr, ptr %11, align 8, !tbaa !40
  %81 = getelementptr inbounds nuw %struct.oggopus_private, ptr %80, i32 0, i32 1
  %82 = load i32, ptr %81, align 4, !tbaa !66
  %83 = load ptr, ptr %10, align 8, !tbaa !33
  %84 = getelementptr inbounds nuw %struct.ogg_stream, ptr %83, i32 0, i32 26
  store i32 %82, ptr %84, align 4, !tbaa !77
  %85 = load ptr, ptr %9, align 8, !tbaa !35
  %86 = getelementptr inbounds nuw %struct.AVStream, ptr %85, i32 0, i32 3
  %87 = load ptr, ptr %86, align 8, !tbaa !70
  %88 = load ptr, ptr %10, align 8, !tbaa !33
  %89 = getelementptr inbounds nuw %struct.ogg_stream, ptr %88, i32 0, i32 4
  %90 = load i32, ptr %89, align 4, !tbaa !46
  %91 = call i32 @ff_alloc_extradata(ptr noundef %87, i32 noundef %90)
  store i32 %91, ptr %15, align 4, !tbaa !9
  %92 = load i32, ptr %15, align 4, !tbaa !9
  %93 = icmp slt i32 %92, 0
  br i1 %93, label %94, label %96

94:                                               ; preds = %60
  %95 = load i32, ptr %15, align 4, !tbaa !9
  store i32 %95, ptr %7, align 4
  store i32 1, ptr %16, align 4
  br label %126

96:                                               ; preds = %60
  %97 = load ptr, ptr %9, align 8, !tbaa !35
  %98 = getelementptr inbounds nuw %struct.AVStream, ptr %97, i32 0, i32 3
  %99 = load ptr, ptr %98, align 8, !tbaa !70
  %100 = getelementptr inbounds nuw %struct.AVCodecParameters, ptr %99, i32 0, i32 3
  %101 = load ptr, ptr %100, align 8, !tbaa !78
  %102 = load ptr, ptr %12, align 8, !tbaa !44
  %103 = load ptr, ptr %10, align 8, !tbaa !33
  %104 = getelementptr inbounds nuw %struct.ogg_stream, ptr %103, i32 0, i32 4
  %105 = load i32, ptr %104, align 4, !tbaa !46
  %106 = zext i32 %105 to i64
  call void @llvm.memcpy.p0.p0.i64(ptr align 1 %101, ptr align 1 %102, i64 %106, i1 false)
  %107 = load ptr, ptr %9, align 8, !tbaa !35
  %108 = getelementptr inbounds nuw %struct.AVStream, ptr %107, i32 0, i32 3
  %109 = load ptr, ptr %108, align 8, !tbaa !70
  %110 = getelementptr inbounds nuw %struct.AVCodecParameters, ptr %109, i32 0, i32 25
  store i32 48000, ptr %110, align 8, !tbaa !79
  %111 = load ptr, ptr %9, align 8, !tbaa !35
  %112 = getelementptr inbounds nuw %struct.AVStream, ptr %111, i32 0, i32 3
  %113 = load ptr, ptr %112, align 8, !tbaa !70
  %114 = getelementptr inbounds nuw %struct.AVCodecParameters, ptr %113, i32 0, i32 25
  %115 = load i32, ptr %114, align 8, !tbaa !79
  %116 = sext i32 %115 to i64
  %117 = call i64 @av_rescale(i64 noundef 80, i64 noundef %116, i64 noundef 1000) #8
  %118 = trunc i64 %117 to i32
  %119 = load ptr, ptr %9, align 8, !tbaa !35
  %120 = getelementptr inbounds nuw %struct.AVStream, ptr %119, i32 0, i32 3
  %121 = load ptr, ptr %120, align 8, !tbaa !70
  %122 = getelementptr inbounds nuw %struct.AVCodecParameters, ptr %121, i32 0, i32 30
  store i32 %118, ptr %122, align 4, !tbaa !80
  %123 = load ptr, ptr %9, align 8, !tbaa !35
  call void @avpriv_set_pts_info(ptr noundef %123, i32 noundef 64, i32 noundef 1, i32 noundef 48000)
  %124 = load ptr, ptr %11, align 8, !tbaa !40
  %125 = getelementptr inbounds nuw %struct.oggopus_private, ptr %124, i32 0, i32 0
  store i32 1, ptr %125, align 8, !tbaa !47
  store i32 1, ptr %7, align 4
  store i32 1, ptr %16, align 4
  br label %126

126:                                              ; preds = %96, %94, %58, %27
  call void @llvm.lifetime.end.p0(i64 4, ptr %15) #6
  call void @llvm.lifetime.end.p0(i64 4, ptr %14) #6
  %127 = load i32, ptr %7, align 4
  ret i32 %127
}