; Function Attrs: nounwind uwtable
define internal fastcc range(i32 -2147483648, 2) i32 @parse_opus_header(ptr noundef %0, ptr noundef %1, ptr noundef captures(none) %2, ptr noundef writeonly captures(none) %3, ptr noundef readonly captures(none) %4, i64 noundef range(i64 0, 4294967296) %5) unnamed_addr #0 {
  %7 = icmp samesign ult i64 %5, 19
  br i1 %7, label %43, label %8

8:                                                ; preds = %6
  %9 = getelementptr inbounds nuw i8, ptr %4, i64 8
  %10 = load i8, ptr %9, align 1, !tbaa !43
  %.not = icmp ult i8 %10, 16
  br i1 %.not, label %11, label %43

11:                                               ; preds = %8
  %12 = getelementptr inbounds nuw i8, ptr %1, i64 16
  %13 = load ptr, ptr %12, align 8, !tbaa !60
  store i32 1, ptr %13, align 8, !tbaa !61
  %14 = getelementptr inbounds nuw i8, ptr %13, i64 4
  store i32 86076, ptr %14, align 4, !tbaa !64
  %15 = getelementptr inbounds nuw i8, ptr %4, i64 9
  %16 = load i8, ptr %15, align 1, !tbaa !43
  %17 = zext i8 %16 to i32
  %18 = getelementptr inbounds nuw i8, ptr %13, i64 132
  %19 = load i32, ptr %18, align 4, !tbaa !65
  %.not31 = icmp eq i32 %19, 0
  %.not32 = icmp eq i32 %19, %17
  %or.cond = select i1 %.not31, i1 true, i1 %.not32
  br i1 %or.cond, label %21, label %20

20:                                               ; preds = %11
  tail call void (ptr, i32, ptr, ...) @av_log(ptr noundef %0, i32 noundef 16, ptr noundef nonnull @.str.3) #6
  br label %43

21:                                               ; preds = %11
  store i32 %17, ptr %18, align 4, !tbaa !65
  %22 = getelementptr inbounds nuw i8, ptr %4, i64 10
  %23 = load i16, ptr %22, align 1, !tbaa !43
  %24 = zext i16 %23 to i32
  %25 = getelementptr inbounds nuw i8, ptr %3, i64 4
  store i32 %24, ptr %25, align 4, !tbaa !58
  %26 = getelementptr inbounds nuw i8, ptr %13, i64 164
  store i32 %24, ptr %26, align 4, !tbaa !66
  %27 = getelementptr inbounds nuw i8, ptr %2, i64 396
  store i32 %24, ptr %27, align 4, !tbaa !67
  %28 = getelementptr inbounds nuw i8, ptr %2, i64 20
  %29 = load i32, ptr %28, align 4, !tbaa !37
  %30 = tail call i32 @ff_alloc_extradata(ptr noundef nonnull %13, i32 noundef %29) #6
  %31 = icmp slt i32 %30, 0
  br i1 %31, label %43, label %32

32:                                               ; preds = %21
  %33 = load ptr, ptr %12, align 8, !tbaa !60
  %34 = getelementptr inbounds nuw i8, ptr %33, i64 16
  %35 = load ptr, ptr %34, align 8, !tbaa !68
  %36 = load i32, ptr %28, align 4, !tbaa !37
  %37 = zext i32 %36 to i64
  tail call void @llvm.memcpy.p0.p0.i64(ptr align 1 %35, ptr nonnull align 1 %4, i64 %37, i1 false)
  %38 = load ptr, ptr %12, align 8, !tbaa !60
  %39 = getelementptr inbounds nuw i8, ptr %38, i64 152
  store i32 48000, ptr %39, align 8, !tbaa !69
  %40 = tail call i64 @av_rescale(i64 noundef 80, i64 noundef 48000, i64 noundef 1000) #7
  %41 = trunc i64 %40 to i32
  %42 = getelementptr inbounds nuw i8, ptr %38, i64 172
  store i32 %41, ptr %42, align 4, !tbaa !70
  tail call void @avpriv_set_pts_info(ptr noundef nonnull %1, i32 noundef 64, i32 noundef 1, i32 noundef 48000) #6
  store i32 1, ptr %3, align 8, !tbaa !38
  br label %43

43:                                               ; preds = %21, %6, %8, %32, %20
  %.0 = phi i32 [ -1163346256, %20 ], [ 1, %32 ], [ -1094995529, %8 ], [ -1094995529, %6 ], [ %30, %21 ]
  ret i32 %.0
}